; Function Attrs: mustprogress nofree norecurse nosync nounwind willreturn memory(read, inaccessiblemem: none) uwtable
define hidden noundef zeroext i1 @_ZN6Assimp11X3DImporter11isNodeEmptyERN4pugi8xml_nodeE(ptr noundef nonnull readnone align 8 captures(none) dereferenceable(120) %0, ptr noundef nonnull readonly align 8 captures(none) dereferenceable(8) %1) local_unnamed_addr #3 align 2 {
  %3 = load ptr, ptr %1, align 8
  %.not.i = icmp eq ptr %3, null
  br i1 %.not.i, label %_ZNK4pugi8xml_node11first_childEv.exit, label %4

4:                                                ; preds = %2
  %5 = getelementptr inbounds nuw i8, ptr %3, i64 32
  %6 = load ptr, ptr %5, align 8
  %7 = icmp eq ptr %6, null
  br label %_ZNK4pugi8xml_node11first_childEv.exit

_ZNK4pugi8xml_node11first_childEv.exit:           ; preds = %2, %4
  %.sroa.0.0.i = phi i1 [ %7, %4 ], [ true, %2 ]
  ret i1 %.sroa.0.0.i
}